; ModuleID = '5/1202.c'
source_filename = "5/1202.c"
target datalayout = "e-m:e-p270:32:32-p271:32:32-p272:64:64-i64:64-f80:128-n8:16:32:64-S128"
target triple = "x86_64-pc-linux-gnu"

@.str = private unnamed_addr constant [4 x i8] c"%lf\00", align 1
@.str.1 = private unnamed_addr constant [3 x i8] c"%s\00", align 1
@.str.2 = private unnamed_addr constant [6 x i8] c"error\00", align 1
@.str.3 = private unnamed_addr constant [4 x i8] c"yes\00", align 1
@.str.4 = private unnamed_addr constant [3 x i8] c"no\00", align 1

; Function Attrs: noinline nounwind uwtable
define dso_local i32 @main() #0 {
  %1 = alloca i32, align 4
  %2 = alloca [501 x i8], align 16
  %3 = alloca [501 x i8], align 16
  %4 = alloca i32, align 4
  %5 = alloca i32, align 4
  %6 = alloca i32, align 4
  %7 = alloca i32, align 4
  %8 = alloca i32, align 4
  %9 = alloca double, align 8
  %10 = alloca double, align 8
  store i32 0, i32* %1, align 4
  store i32 0, i32* %7, align 4
  store i32 0, i32* %8, align 4
  %11 = call i32 (i8*, ...) @__isoc99_scanf(i8* getelementptr inbounds ([4 x i8], [4 x i8]* @.str, i64 0, i64 0), double* %9)
  %12 = call i32 (i8*, ...) @__isoc99_scanf(i8* getelementptr inbounds ([3 x i8], [3 x i8]* @.str.1, i64 0, i64 0), [501 x i8]* %2)
  %13 = call i32 (i8*, ...) @__isoc99_scanf(i8* getelementptr inbounds ([3 x i8], [3 x i8]* @.str.1, i64 0, i64 0), [501 x i8]* %3)
  %14 = getelementptr inbounds [501 x i8], [501 x i8]* %2, i64 0, i64 0
  %15 = call i64 @strlen(i8* %14) #3
  %16 = trunc i64 %15 to i32
  store i32 %16, i32* %4, align 4
  %17 = getelementptr inbounds [501 x i8], [501 x i8]* %3, i64 0, i64 0
  %18 = call i64 @strlen(i8* %17) #3
  %19 = trunc i64 %18 to i32
  store i32 %19, i32* %5, align 4
  %20 = load i32, i32* %4, align 4
  %21 = load i32, i32* %5, align 4
  %22 = icmp ne i32 %20, %21
  br i1 %22, label %23, label %25

23:                                               ; preds = %0
  %24 = call i32 (i8*, ...) @printf(i8* getelementptr inbounds ([6 x i8], [6 x i8]* @.str.2, i64 0, i64 0))
  br label %121

25:                                               ; preds = %0
  store i32 0, i32* %6, align 4
  br label %26

26:                                               ; preds = %104, %25
  %27 = load i32, i32* %6, align 4
  %28 = load i32, i32* %4, align 4
  %29 = icmp slt i32 %27, %28
  br i1 %29, label %30, label %107

30:                                               ; preds = %26
  %31 = load i32, i32* %6, align 4
  %32 = sext i32 %31 to i64
  %33 = getelementptr inbounds [501 x i8], [501 x i8]* %2, i64 0, i64 %32
  %34 = load i8, i8* %33, align 1
  %35 = sext i8 %34 to i32
  %36 = icmp ne i32 %35, 65
  br i1 %36, label %37, label %58

37:                                               ; preds = %30
  %38 = load i32, i32* %6, align 4
  %39 = sext i32 %38 to i64
  %40 = getelementptr inbounds [501 x i8], [501 x i8]* %2, i64 0, i64 %39
  %41 = load i8, i8* %40, align 1
  %42 = sext i8 %41 to i32
  %43 = icmp ne i32 %42, 84
  br i1 %43, label %44, label %58

44:                                               ; preds = %37
  %45 = load i32, i32* %6, align 4
  %46 = sext i32 %45 to i64
  %47 = getelementptr inbounds [501 x i8], [501 x i8]* %2, i64 0, i64 %46
  %48 = load i8, i8* %47, align 1
  %49 = sext i8 %48 to i32
  %50 = icmp ne i32 %49, 71
  br i1 %50, label %51, label %58

51:                                               ; preds = %44
  %52 = load i32, i32* %6, align 4
  %53 = sext i32 %52 to i64
  %54 = getelementptr inbounds [501 x i8], [501 x i8]* %2, i64 0, i64 %53
  %55 = load i8, i8* %54, align 1
  %56 = sext i8 %55 to i32
  %57 = icmp ne i32 %56, 67
  br i1 %57, label %86, label %58

58:                                               ; preds = %51, %44, %37, %30
  %59 = load i32, i32* %6, align 4
  %60 = sext i32 %59 to i64
  %61 = getelementptr inbounds [501 x i8], [501 x i8]* %3, i64 0, i64 %60
  %62 = load i8, i8* %61, align 1
  %63 = sext i8 %62 to i32
  %64 = icmp ne i32 %63, 65
  br i1 %64, label %65, label %88

65:                                               ; preds = %58
  %66 = load i32, i32* %6, align 4
  %67 = sext i32 %66 to i64
  %68 = getelementptr inbounds [501 x i8], [501 x i8]* %3, i64 0, i64 %67
  %69 = load i8, i8* %68, align 1
  %70 = sext i8 %69 to i32
  %71 = icmp ne i32 %70, 84
  br i1 %71, label %72, label %88

72:                                               ; preds = %65
  %73 = load i32, i32* %6, align 4
  %74 = sext i32 %73 to i64
  %75 = getelementptr inbounds [501 x i8], [501 x i8]* %3, i64 0, i64 %74
  %76 = load i8, i8* %75, align 1
  %77 = sext i8 %76 to i32
  %78 = icmp ne i32 %77, 67
  br i1 %78, label %79, label %88

79:                                               ; preds = %72
  %80 = load i32, i32* %6, align 4
  %81 = sext i32 %80 to i64
  %82 = getelementptr inbounds [501 x i8], [501 x i8]* %3, i64 0, i64 %81
  %83 = load i8, i8* %82, align 1
  %84 = sext i8 %83 to i32
  %85 = icmp ne i32 %84, 71
  br i1 %85, label %86, label %88

86:                                               ; preds = %79, %51
  %87 = call i32 (i8*, ...) @printf(i8* getelementptr inbounds ([6 x i8], [6 x i8]* @.str.2, i64 0, i64 0))
  store i32 0, i32* %1, align 4
  br label %122

88:                                               ; preds = %79, %72, %65, %58
  %89 = load i32, i32* %6, align 4
  %90 = sext i32 %89 to i64
  %91 = getelementptr inbounds [501 x i8], [501 x i8]* %2, i64 0, i64 %90
  %92 = load i8, i8* %91, align 1
  %93 = sext i8 %92 to i32
  %94 = load i32, i32* %6, align 4
  %95 = sext i32 %94 to i64
  %96 = getelementptr inbounds [501 x i8], [501 x i8]* %3, i64 0, i64 %95
  %97 = load i8, i8* %96, align 1
  %98 = sext i8 %97 to i32
  %99 = icmp eq i32 %93, %98
  br i1 %99, label %100, label %103

100:                                              ; preds = %88
  %101 = load i32, i32* %7, align 4
  %102 = add nsw i32 %101, 1
  store i32 %102, i32* %7, align 4
  br label %103

103:                                              ; preds = %100, %88
  br label %104

104:                                              ; preds = %103
  %105 = load i32, i32* %6, align 4
  %106 = add nsw i32 %105, 1
  store i32 %106, i32* %6, align 4
  br label %26

107:                                              ; preds = %26
  %108 = load double, double* %9, align 8
  %109 = load i32, i32* %4, align 4
  %110 = sitofp i32 %109 to double
  %111 = fmul double %108, %110
  store double %111, double* %10, align 8
  %112 = load i32, i32* %7, align 4
  %113 = sitofp i32 %112 to double
  %114 = load double, double* %10, align 8
  %115 = fcmp ogt double %113, %114
  br i1 %115, label %116, label %118

116:                                              ; preds = %107
  %117 = call i32 (i8*, ...) @printf(i8* getelementptr inbounds ([4 x i8], [4 x i8]* @.str.3, i64 0, i64 0))
  br label %120

118:                                              ; preds = %107
  %119 = call i32 (i8*, ...) @printf(i8* getelementptr inbounds ([3 x i8], [3 x i8]* @.str.4, i64 0, i64 0))
  br label %120

120:                                              ; preds = %118, %116
  br label %121

121:                                              ; preds = %120, %23
  store i32 0, i32* %1, align 4
  br label %122

122:                                              ; preds = %121, %86
  %123 = load i32, i32* %1, align 4
  ret i32 %123
}

declare dso_local i32 @__isoc99_scanf(i8*, ...) #1

; Function Attrs: nounwind readonly
declare dso_local i64 @strlen(i8*) #2

declare dso_local i32 @printf(i8*, ...) #1


!llvm.module.flags = !{!0}
!llvm.ident = !{!1}

!0 = !{i32 1, !"wchar_size", i32 4}
!1 = !{!"clang version 10.0.0-4ubuntu1 "}
